target datalayout = "e-m:e-p270:32:32-p271:32:32-p272:64:64-i64:64-i128:128-f80:128-n8:16:32:64-S128"
target triple = "x86_64-pc-linux-gnu"

%"class.vcg::Point3" = type { [3 x float] }
%"class.vcg::TrackMode" = type { ptr }
%"class.std::vector" = type { %"struct.std::_Vector_base" }
%"struct.std::_Vector_base" = type { %"struct.std::_Vector_base<vcg::Point3<float>, std::allocator<vcg::Point3<float>>>::_Vector_impl" }
%"struct.std::_Vector_base<vcg::Point3<float>, std::allocator<vcg::Point3<float>>>::_Vector_impl" = type { %"struct.std::_Vector_base<vcg::Point3<float>, std::allocator<vcg::Point3<float>>>::_Vector_impl_data" }
%"struct.std::_Vector_base<vcg::Point3<float>, std::allocator<vcg::Point3<float>>>::_Vector_impl_data" = type { ptr, ptr, ptr }
%"class.vcg::PathMode" = type { %"class.vcg::TrackMode", %"class.std::vector", i8, float, float, float, float, %"class.vcg::Point3", float, %"class.vcg::Point3" }

; Function Attrs: mustprogress nounwind uwtable
define void @_ZN3vcg8PathMode4UndoEv(ptr noundef nonnull align 8 dereferenceable(80) %0) unnamed_addr #0 align 2 {
  %2 = alloca ptr, align 8
  store ptr %0, ptr %2, align 8
  %3 = load ptr, ptr %2, align 8
  %4 = getelementptr inbounds %"class.vcg::PathMode", ptr %3, i32 0, i32 8
  %5 = load float, ptr %4, align 8
  %6 = getelementptr inbounds %"class.vcg::PathMode", ptr %3, i32 0, i32 3
  store float %5, ptr %6, align 4
  %7 = getelementptr inbounds %"class.vcg::PathMode", ptr %3, i32 0, i32 9
  %8 = getelementptr inbounds %"class.vcg::PathMode", ptr %3, i32 0, i32 7
  call void @llvm.memcpy.p0.p0.i64(ptr align 4 %8, ptr align 4 %7, i64 12, i1 false)
  ret void
}