; Function Attrs: mustprogress nofree norecurse nosync nounwind willreturn memory(argmem: readwrite) uwtable
define void @_ZN3vcg8PathMode4UndoEv(ptr nocapture noundef nonnull align 8 dereferenceable(80) %0) unnamed_addr #7 align 2 {
  %2 = getelementptr inbounds i8, ptr %0, i64 64
  %3 = load float, ptr %2, align 8
  %4 = getelementptr inbounds i8, ptr %0, i64 36
  store float %3, ptr %4, align 4
  %5 = getelementptr inbounds i8, ptr %0, i64 68
  %6 = getelementptr inbounds i8, ptr %0, i64 52
  tail call void @llvm.memcpy.p0.p0.i64(ptr noundef nonnull align 4 dereferenceable(12) %6, ptr noundef nonnull align 4 dereferenceable(12) %5, i64 12, i1 false)
  ret void
}